target datalayout = "e-m:e-p270:32:32-p271:32:32-p272:64:64-i64:64-i128:128-f80:128-n8:16:32:64-S128"
target triple = "x86_64-pc-linux-gnu"

%struct.AVFilterContext = type { ptr, ptr, ptr, ptr, ptr, i32, ptr, ptr, i32, ptr, ptr, i32, i32, ptr, ptr, ptr, ptr, i32, ptr, i32, i32 }
%struct.AddROIContext = type { ptr, [4 x ptr], [4 x ptr], [4 x i32], %struct.AVRational, i32 }
%struct.AVRational = type { i32, i32 }

; Function Attrs: cold nounwind optsize uwtable
define internal void @addroi_uninit(ptr noundef %0) #0 {
  %2 = alloca ptr, align 8
  %3 = alloca ptr, align 8
  %4 = alloca i32, align 4
  store ptr %0, ptr %2, align 8, !tbaa !4
  call void @llvm.lifetime.start.p0(i64 8, ptr %3) #6
  %5 = load ptr, ptr %2, align 8, !tbaa !4
  %6 = getelementptr inbounds nuw %struct.AVFilterContext, ptr %5, i32 0, i32 9
  %7 = load ptr, ptr %6, align 8, !tbaa !9
  store ptr %7, ptr %3, align 8, !tbaa !22
  call void @llvm.lifetime.start.p0(i64 4, ptr %4) #6
  store i32 0, ptr %4, align 4, !tbaa !24
  br label %8

8:                                                ; preds = %23, %1
  %9 = load i32, ptr %4, align 4, !tbaa !24
  %10 = icmp slt i32 %9, 4
  br i1 %10, label %11, label %26

11:                                               ; preds = %8
  %12 = load ptr, ptr %3, align 8, !tbaa !22
  %13 = getelementptr inbounds nuw %struct.AddROIContext, ptr %12, i32 0, i32 2
  %14 = load i32, ptr %4, align 4, !tbaa !24
  %15 = sext i32 %14 to i64
  %16 = getelementptr inbounds [4 x ptr], ptr %13, i64 0, i64 %15
  %17 = load ptr, ptr %16, align 8, !tbaa !29
  call void @av_expr_free(ptr noundef %17)
  %18 = load ptr, ptr %3, align 8, !tbaa !22
  %19 = getelementptr inbounds nuw %struct.AddROIContext, ptr %18, i32 0, i32 2
  %20 = load i32, ptr %4, align 4, !tbaa !24
  %21 = sext i32 %20 to i64
  %22 = getelementptr inbounds [4 x ptr], ptr %19, i64 0, i64 %21
  store ptr null, ptr %22, align 8, !tbaa !29
  br label %23

23:                                               ; preds = %11
  %24 = load i32, ptr %4, align 4, !tbaa !24
  %25 = add nsw i32 %24, 1
  store i32 %25, ptr %4, align 4, !tbaa !24
  br label %8, !llvm.loop !31

26:                                               ; preds = %8
  call void @llvm.lifetime.end.p0(i64 4, ptr %4) #6
  call void @llvm.lifetime.end.p0(i64 8, ptr %3) #6
  ret void
}